target datalayout = "e-m:e-p270:32:32-p271:32:32-p272:64:64-i64:64-i128:128-f80:128-n8:16:32:64-S128"
target triple = "x86_64-pc-linux-gnu"

%struct.FunctionCallInfoBaseData = type { ptr, ptr, ptr, i32, i8, i16, [0 x %struct.NullableDatum] }
%struct.NullableDatum = type { i64, i8 }
%struct.macaddr = type { i8, i8, i8, i8, i8, i8 }

; Function Attrs: inlinehint nounwind uwtable
define internal i64 @PointerGetDatum(ptr noundef %0) #2 {
  %2 = alloca ptr, align 8
  store ptr %0, ptr %2, align 8
  %3 = load ptr, ptr %2, align 8
  %4 = ptrtoint ptr %3 to i64
  ret i64 %4
}

; Function Attrs: inlinehint nounwind uwtable
define internal ptr @DatumGetPointer(i64 noundef %0) #2 {
  %2 = alloca i64, align 8
  store i64 %0, ptr %2, align 8
  %3 = load i64, ptr %2, align 8
  %4 = inttoptr i64 %3 to ptr
  ret ptr %4
}

; Function Attrs: inlinehint nounwind uwtable
define internal i64 @MacaddrPGetDatum(ptr noundef %0) #2 {
  %2 = alloca ptr, align 8
  store ptr %0, ptr %2, align 8
  %3 = load ptr, ptr %2, align 8
  %4 = call i64 @PointerGetDatum(ptr noundef %3)
  ret i64 %4
}

; Function Attrs: inlinehint nounwind uwtable
define internal ptr @DatumGetMacaddrP(i64 noundef %0) #2 {
  %2 = alloca i64, align 8
  store i64 %0, ptr %2, align 8
  %3 = load i64, ptr %2, align 8
  %4 = call ptr @DatumGetPointer(i64 noundef %3)
  ret ptr %4
}

; Function Attrs: nounwind uwtable
define dso_local i64 @macaddr_or(ptr noundef %0) #0 {
  %2 = alloca ptr, align 8
  %3 = alloca ptr, align 8
  %4 = alloca ptr, align 8
  %5 = alloca ptr, align 8
  store ptr %0, ptr %2, align 8
  call void @llvm.lifetime.start.p0(i64 8, ptr %3) #9
  %6 = load ptr, ptr %2, align 8
  %7 = getelementptr inbounds nuw %struct.FunctionCallInfoBaseData, ptr %6, i32 0, i32 6
  %8 = getelementptr inbounds [0 x %struct.NullableDatum], ptr %7, i64 0, i64 0
  %9 = getelementptr inbounds nuw %struct.NullableDatum, ptr %8, i32 0, i32 0
  %10 = load i64, ptr %9, align 8
  %11 = call ptr @DatumGetMacaddrP(i64 noundef %10)
  store ptr %11, ptr %3, align 8
  call void @llvm.lifetime.start.p0(i64 8, ptr %4) #9
  %12 = load ptr, ptr %2, align 8
  %13 = getelementptr inbounds nuw %struct.FunctionCallInfoBaseData, ptr %12, i32 0, i32 6
  %14 = getelementptr inbounds [0 x %struct.NullableDatum], ptr %13, i64 0, i64 1
  %15 = getelementptr inbounds nuw %struct.NullableDatum, ptr %14, i32 0, i32 0
  %16 = load i64, ptr %15, align 8
  %17 = call ptr @DatumGetMacaddrP(i64 noundef %16)
  store ptr %17, ptr %4, align 8
  call void @llvm.lifetime.start.p0(i64 8, ptr %5) #9
  %18 = call ptr @palloc(i64 noundef 6)
  store ptr %18, ptr %5, align 8
  %19 = load ptr, ptr %3, align 8
  %20 = getelementptr inbounds nuw %struct.macaddr, ptr %19, i32 0, i32 0
  %21 = load i8, ptr %20, align 1
  %22 = zext i8 %21 to i32
  %23 = load ptr, ptr %4, align 8
  %24 = getelementptr inbounds nuw %struct.macaddr, ptr %23, i32 0, i32 0
  %25 = load i8, ptr %24, align 1
  %26 = zext i8 %25 to i32
  %27 = or i32 %22, %26
  %28 = trunc i32 %27 to i8
  %29 = load ptr, ptr %5, align 8
  %30 = getelementptr inbounds nuw %struct.macaddr, ptr %29, i32 0, i32 0
  store i8 %28, ptr %30, align 1
  %31 = load ptr, ptr %3, align 8
  %32 = getelementptr inbounds nuw %struct.macaddr, ptr %31, i32 0, i32 1
  %33 = load i8, ptr %32, align 1
  %34 = zext i8 %33 to i32
  %35 = load ptr, ptr %4, align 8
  %36 = getelementptr inbounds nuw %struct.macaddr, ptr %35, i32 0, i32 1
  %37 = load i8, ptr %36, align 1
  %38 = zext i8 %37 to i32
  %39 = or i32 %34, %38
  %40 = trunc i32 %39 to i8
  %41 = load ptr, ptr %5, align 8
  %42 = getelementptr inbounds nuw %struct.macaddr, ptr %41, i32 0, i32 1
  store i8 %40, ptr %42, align 1
  %43 = load ptr, ptr %3, align 8
  %44 = getelementptr inbounds nuw %struct.macaddr, ptr %43, i32 0, i32 2
  %45 = load i8, ptr %44, align 1
  %46 = zext i8 %45 to i32
  %47 = load ptr, ptr %4, align 8
  %48 = getelementptr inbounds nuw %struct.macaddr, ptr %47, i32 0, i32 2
  %49 = load i8, ptr %48, align 1
  %50 = zext i8 %49 to i32
  %51 = or i32 %46, %50
  %52 = trunc i32 %51 to i8
  %53 = load ptr, ptr %5, align 8
  %54 = getelementptr inbounds nuw %struct.macaddr, ptr %53, i32 0, i32 2
  store i8 %52, ptr %54, align 1
  %55 = load ptr, ptr %3, align 8
  %56 = getelementptr inbounds nuw %struct.macaddr, ptr %55, i32 0, i32 3
  %57 = load i8, ptr %56, align 1
  %58 = zext i8 %57 to i32
  %59 = load ptr, ptr %4, align 8
  %60 = getelementptr inbounds nuw %struct.macaddr, ptr %59, i32 0, i32 3
  %61 = load i8, ptr %60, align 1
  %62 = zext i8 %61 to i32
  %63 = or i32 %58, %62
  %64 = trunc i32 %63 to i8
  %65 = load ptr, ptr %5, align 8
  %66 = getelementptr inbounds nuw %struct.macaddr, ptr %65, i32 0, i32 3
  store i8 %64, ptr %66, align 1
  %67 = load ptr, ptr %3, align 8
  %68 = getelementptr inbounds nuw %struct.macaddr, ptr %67, i32 0, i32 4
  %69 = load i8, ptr %68, align 1
  %70 = zext i8 %69 to i32
  %71 = load ptr, ptr %4, align 8
  %72 = getelementptr inbounds nuw %struct.macaddr, ptr %71, i32 0, i32 4
  %73 = load i8, ptr %72, align 1
  %74 = zext i8 %73 to i32
  %75 = or i32 %70, %74
  %76 = trunc i32 %75 to i8
  %77 = load ptr, ptr %5, align 8
  %78 = getelementptr inbounds nuw %struct.macaddr, ptr %77, i32 0, i32 4
  store i8 %76, ptr %78, align 1
  %79 = load ptr, ptr %3, align 8
  %80 = getelementptr inbounds nuw %struct.macaddr, ptr %79, i32 0, i32 5
  %81 = load i8, ptr %80, align 1
  %82 = zext i8 %81 to i32
  %83 = load ptr, ptr %4, align 8
  %84 = getelementptr inbounds nuw %struct.macaddr, ptr %83, i32 0, i32 5
  %85 = load i8, ptr %84, align 1
  %86 = zext i8 %85 to i32
  %87 = or i32 %82, %86
  %88 = trunc i32 %87 to i8
  %89 = load ptr, ptr %5, align 8
  %90 = getelementptr inbounds nuw %struct.macaddr, ptr %89, i32 0, i32 5
  store i8 %88, ptr %90, align 1
  %91 = load ptr, ptr %5, align 8
  %92 = call i64 @MacaddrPGetDatum(ptr noundef %91)
  call void @llvm.lifetime.end.p0(i64 8, ptr %5) #9
  call void @llvm.lifetime.end.p0(i64 8, ptr %4) #9
  call void @llvm.lifetime.end.p0(i64 8, ptr %3) #9
  ret i64 %92
}