; Function Attrs: nounwind uwtable
define dso_local noundef i64 @macaddr_or(ptr noundef readonly captures(none) %0) local_unnamed_addr #0 {
  %2 = getelementptr inbounds nuw i8, ptr %0, i64 32
  %3 = load i64, ptr %2, align 8
  %4 = inttoptr i64 %3 to ptr
  %5 = getelementptr inbounds nuw i8, ptr %0, i64 48
  %6 = load i64, ptr %5, align 8
  %7 = inttoptr i64 %6 to ptr
  %8 = tail call ptr @palloc(i64 noundef 6) #7
  %9 = load i8, ptr %4, align 1
  %10 = load i8, ptr %7, align 1
  %11 = or i8 %10, %9
  store i8 %11, ptr %8, align 1
  %12 = getelementptr inbounds nuw i8, ptr %4, i64 1
  %13 = load i8, ptr %12, align 1
  %14 = getelementptr inbounds nuw i8, ptr %7, i64 1
  %15 = load i8, ptr %14, align 1
  %16 = or i8 %15, %13
  %17 = getelementptr inbounds nuw i8, ptr %8, i64 1
  store i8 %16, ptr %17, align 1
  %18 = getelementptr inbounds nuw i8, ptr %4, i64 2
  %19 = load i8, ptr %18, align 1
  %20 = getelementptr inbounds nuw i8, ptr %7, i64 2
  %21 = load i8, ptr %20, align 1
  %22 = or i8 %21, %19
  %23 = getelementptr inbounds nuw i8, ptr %8, i64 2
  store i8 %22, ptr %23, align 1
  %24 = getelementptr inbounds nuw i8, ptr %4, i64 3
  %25 = load i8, ptr %24, align 1
  %26 = getelementptr inbounds nuw i8, ptr %7, i64 3
  %27 = load i8, ptr %26, align 1
  %28 = or i8 %27, %25
  %29 = getelementptr inbounds nuw i8, ptr %8, i64 3
  store i8 %28, ptr %29, align 1
  %30 = getelementptr inbounds nuw i8, ptr %4, i64 4
  %31 = load i8, ptr %30, align 1
  %32 = getelementptr inbounds nuw i8, ptr %7, i64 4
  %33 = load i8, ptr %32, align 1
  %34 = or i8 %33, %31
  %35 = getelementptr inbounds nuw i8, ptr %8, i64 4
  store i8 %34, ptr %35, align 1
  %36 = getelementptr inbounds nuw i8, ptr %4, i64 5
  %37 = load i8, ptr %36, align 1
  %38 = getelementptr inbounds nuw i8, ptr %7, i64 5
  %39 = load i8, ptr %38, align 1
  %40 = or i8 %39, %37
  %41 = getelementptr inbounds nuw i8, ptr %8, i64 5
  store i8 %40, ptr %41, align 1
  %42 = ptrtoint ptr %8 to i64
  ret i64 %42
}